; Function Attrs: nounwind uwtable
define void @_ZTv0_n24_N7openvdb5v11_02io8TempFileD0Ev(ptr noundef %this) unnamed_addr #8 align 2 {
entry:
  %0 = load ptr, ptr %this, align 8
  %1 = getelementptr inbounds i8, ptr %0, i64 -24
  %2 = load i64, ptr %1, align 8
  %3 = getelementptr inbounds i8, ptr %this, i64 %2
  tail call void @_ZN7openvdb5v11_02io8TempFileD2Ev(ptr noundef nonnull align 8 dereferenceable(16) %3, ptr noundef nonnull @_ZTTN7openvdb5v11_02io8TempFileE) #25
  %4 = getelementptr inbounds i8, ptr %3, i64 16
  tail call void @_ZNSt9basic_iosIcSt11char_traitsIcEED2Ev(ptr noundef nonnull align 8 dereferenceable(264) %4) #25
  tail call void @_ZdlPv(ptr noundef nonnull %3) #24
  ret void
}